; Function Attrs: null_pointer_is_valid sspstrong uwtable
define hidden void @nvme_publish_to_cmd_link(ptr noundef %0, ptr noundef %1, i32 noundef %2, ptr noundef readonly captures(none) %3) local_unnamed_addr #0 {
  %5 = load i32, ptr %3, align 8
  %6 = tail call ptr @proto_tree_add_uint(ptr noundef %0, i32 noundef %2, ptr noundef %1, i32 noundef 0, i32 noundef 0, i32 noundef %5)
  %.not.i.i = icmp eq ptr %6, null
  br i1 %.not.i.i, label %nvme_publish_link.exit, label %7

7:                                                ; preds = %4
  %8 = getelementptr inbounds nuw i8, ptr %6, i64 40
  %9 = load ptr, ptr %8, align 8
  %.not5.i.i = icmp eq ptr %9, null
  br i1 %.not5.i.i, label %nvme_publish_link.exit, label %10

10:                                               ; preds = %7
  %11 = getelementptr inbounds nuw i8, ptr %9, i64 28
  %12 = load i32, ptr %11, align 4
  %13 = or i32 %12, 2
  store i32 %13, ptr %11, align 4
  br label %nvme_publish_link.exit

nvme_publish_link.exit:                           ; preds = %4, %7, %10
  ret void
}